target datalayout = "e-m:e-p270:32:32-p271:32:32-p272:64:64-i64:64-i128:128-f80:128-n8:16:32:64-S128"
target triple = "x86_64-pc-linux-gnu"

%struct.bn_mont_ctx_st = type { i32, %struct.bignum_st, %struct.bignum_st, %struct.bignum_st, [2 x i64], i32 }
%struct.bignum_st = type { ptr, i32, i32, i32, i32 }

; Function Attrs: nounwind uwtable
define ptr @BN_MONT_CTX_copy(ptr noundef %0, ptr noundef %1) #0 {
  %3 = alloca ptr, align 8
  %4 = alloca ptr, align 8
  %5 = alloca ptr, align 8
  store ptr %0, ptr %4, align 8, !tbaa !8
  store ptr %1, ptr %5, align 8, !tbaa !8
  %6 = load ptr, ptr %4, align 8, !tbaa !8
  %7 = load ptr, ptr %5, align 8, !tbaa !8
  %8 = icmp eq ptr %6, %7
  br i1 %8, label %9, label %11

9:                                                ; preds = %2
  %10 = load ptr, ptr %4, align 8, !tbaa !8
  store ptr %10, ptr %3, align 8
  br label %56

11:                                               ; preds = %2
  %12 = load ptr, ptr %4, align 8, !tbaa !8
  %13 = getelementptr inbounds nuw %struct.bn_mont_ctx_st, ptr %12, i32 0, i32 1
  %14 = load ptr, ptr %5, align 8, !tbaa !8
  %15 = getelementptr inbounds nuw %struct.bn_mont_ctx_st, ptr %14, i32 0, i32 1
  %16 = call ptr @BN_copy(ptr noundef %13, ptr noundef %15)
  %17 = icmp ne ptr %16, null
  br i1 %17, label %19, label %18

18:                                               ; preds = %11
  store ptr null, ptr %3, align 8
  br label %56

19:                                               ; preds = %11
  %20 = load ptr, ptr %4, align 8, !tbaa !8
  %21 = getelementptr inbounds nuw %struct.bn_mont_ctx_st, ptr %20, i32 0, i32 2
  %22 = load ptr, ptr %5, align 8, !tbaa !8
  %23 = getelementptr inbounds nuw %struct.bn_mont_ctx_st, ptr %22, i32 0, i32 2
  %24 = call ptr @BN_copy(ptr noundef %21, ptr noundef %23)
  %25 = icmp ne ptr %24, null
  br i1 %25, label %27, label %26

26:                                               ; preds = %19
  store ptr null, ptr %3, align 8
  br label %56

27:                                               ; preds = %19
  %28 = load ptr, ptr %4, align 8, !tbaa !8
  %29 = getelementptr inbounds nuw %struct.bn_mont_ctx_st, ptr %28, i32 0, i32 3
  %30 = load ptr, ptr %5, align 8, !tbaa !8
  %31 = getelementptr inbounds nuw %struct.bn_mont_ctx_st, ptr %30, i32 0, i32 3
  %32 = call ptr @BN_copy(ptr noundef %29, ptr noundef %31)
  %33 = icmp ne ptr %32, null
  br i1 %33, label %35, label %34

34:                                               ; preds = %27
  store ptr null, ptr %3, align 8
  br label %56

35:                                               ; preds = %27
  %36 = load ptr, ptr %5, align 8, !tbaa !8
  %37 = getelementptr inbounds nuw %struct.bn_mont_ctx_st, ptr %36, i32 0, i32 0
  %38 = load i32, ptr %37, align 8, !tbaa !31
  %39 = load ptr, ptr %4, align 8, !tbaa !8
  %40 = getelementptr inbounds nuw %struct.bn_mont_ctx_st, ptr %39, i32 0, i32 0
  store i32 %38, ptr %40, align 8, !tbaa !31
  %41 = load ptr, ptr %5, align 8, !tbaa !8
  %42 = getelementptr inbounds nuw %struct.bn_mont_ctx_st, ptr %41, i32 0, i32 4
  %43 = getelementptr inbounds [2 x i64], ptr %42, i64 0, i64 0
  %44 = load i64, ptr %43, align 8, !tbaa !24
  %45 = load ptr, ptr %4, align 8, !tbaa !8
  %46 = getelementptr inbounds nuw %struct.bn_mont_ctx_st, ptr %45, i32 0, i32 4
  %47 = getelementptr inbounds [2 x i64], ptr %46, i64 0, i64 0
  store i64 %44, ptr %47, align 8, !tbaa !24
  %48 = load ptr, ptr %5, align 8, !tbaa !8
  %49 = getelementptr inbounds nuw %struct.bn_mont_ctx_st, ptr %48, i32 0, i32 4
  %50 = getelementptr inbounds [2 x i64], ptr %49, i64 0, i64 1
  %51 = load i64, ptr %50, align 8, !tbaa !24
  %52 = load ptr, ptr %4, align 8, !tbaa !8
  %53 = getelementptr inbounds nuw %struct.bn_mont_ctx_st, ptr %52, i32 0, i32 4
  %54 = getelementptr inbounds [2 x i64], ptr %53, i64 0, i64 1
  store i64 %51, ptr %54, align 8, !tbaa !24
  %55 = load ptr, ptr %4, align 8, !tbaa !8
  store ptr %55, ptr %3, align 8
  br label %56

56:                                               ; preds = %35, %34, %26, %18, %9
  %57 = load ptr, ptr %3, align 8
  ret ptr %57
}