; Function Attrs: nounwind uwtable
define noundef ptr @BN_MONT_CTX_copy(ptr noundef %0, ptr noundef %1) local_unnamed_addr #0 {
  %3 = icmp eq ptr %0, %1
  br i1 %3, label %24, label %4

4:                                                ; preds = %2
  %5 = getelementptr inbounds nuw i8, ptr %0, i64 8
  %6 = getelementptr inbounds nuw i8, ptr %1, i64 8
  %7 = tail call ptr @BN_copy(ptr noundef nonnull %5, ptr noundef nonnull %6) #5
  %.not = icmp eq ptr %7, null
  br i1 %.not, label %24, label %8

8:                                                ; preds = %4
  %9 = getelementptr inbounds nuw i8, ptr %0, i64 32
  %10 = getelementptr inbounds nuw i8, ptr %1, i64 32
  %11 = tail call ptr @BN_copy(ptr noundef nonnull %9, ptr noundef nonnull %10) #5
  %.not19 = icmp eq ptr %11, null
  br i1 %.not19, label %24, label %12

12:                                               ; preds = %8
  %13 = getelementptr inbounds nuw i8, ptr %0, i64 56
  %14 = getelementptr inbounds nuw i8, ptr %1, i64 56
  %15 = tail call ptr @BN_copy(ptr noundef nonnull %13, ptr noundef nonnull %14) #5
  %.not20 = icmp eq ptr %15, null
  br i1 %.not20, label %24, label %16

16:                                               ; preds = %12
  %17 = load i32, ptr %1, align 8, !tbaa !21
  store i32 %17, ptr %0, align 8, !tbaa !21
  %18 = getelementptr inbounds nuw i8, ptr %1, i64 80
  %19 = load i64, ptr %18, align 8, !tbaa !15
  %20 = getelementptr inbounds nuw i8, ptr %0, i64 80
  store i64 %19, ptr %20, align 8, !tbaa !15
  %21 = getelementptr inbounds nuw i8, ptr %1, i64 88
  %22 = load i64, ptr %21, align 8, !tbaa !15
  %23 = getelementptr inbounds nuw i8, ptr %0, i64 88
  store i64 %22, ptr %23, align 8, !tbaa !15
  br label %24

24:                                               ; preds = %12, %8, %4, %2, %16
  %.0 = phi ptr [ %0, %16 ], [ %0, %2 ], [ null, %4 ], [ null, %8 ], [ null, %12 ]
  ret ptr %.0
}